target datalayout = "e-m:e-p270:32:32-p271:32:32-p272:64:64-i64:64-i128:128-f80:128-n8:16:32:64-S128"
target triple = "x86_64-pc-linux-gnu"

%struct.rb_data_type_struct = type { ptr, %struct.anon, ptr, ptr, i64 }
%struct.anon = type { ptr, ptr, ptr, ptr, [1 x ptr] }

@ossl_pkcs7_type = internal constant %struct.rb_data_type_struct { ptr @.str.53, %struct.anon { ptr null, ptr @ossl_pkcs7_free, ptr null, ptr null, [1 x ptr] zeroinitializer }, ptr null, ptr null, i64 33 }, align 8
@ePKCS7Error = internal global i64 0, align 8
@rb_eRuntimeError = external global i64, align 8
@.str.1 = private unnamed_addr constant [26 x i8] c"PKCS7 wasn't initialized.\00", align 1

; Function Attrs: nounwind sspstrong uwtable
define internal i64 @ossl_pkcs7_add_crl(i64 noundef %0, i64 noundef %1) #0 {
  %3 = alloca i64, align 8
  %4 = alloca i64, align 8
  %5 = alloca ptr, align 8
  %6 = alloca ptr, align 8
  store i64 %0, ptr %3, align 8, !tbaa !11
  store i64 %1, ptr %4, align 8, !tbaa !11
  call void @llvm.lifetime.start.p0(i64 8, ptr %5) #16
  call void @llvm.lifetime.start.p0(i64 8, ptr %6) #16
  br label %7

7:                                                ; preds = %2
  %8 = load i64, ptr %3, align 8, !tbaa !11
  %9 = call ptr @rb_check_typeddata(i64 noundef %8, ptr noundef @ossl_pkcs7_type)
  store ptr %9, ptr %5, align 8, !tbaa !6
  %10 = load ptr, ptr %5, align 8, !tbaa !6
  %11 = icmp ne ptr %10, null
  br i1 %11, label %14, label %12

12:                                               ; preds = %7
  %13 = load i64, ptr @rb_eRuntimeError, align 8, !tbaa !11
  call void (i64, ptr, ...) @ossl_raise(i64 noundef %13, ptr noundef @.str.1) #17
  unreachable

14:                                               ; preds = %7
  br label %15

15:                                               ; preds = %14
  br label %16

16:                                               ; preds = %15
  %17 = load i64, ptr %4, align 8, !tbaa !11
  %18 = call ptr @GetX509CRLPtr(i64 noundef %17)
  store ptr %18, ptr %6, align 8, !tbaa !60
  %19 = load ptr, ptr %5, align 8, !tbaa !6
  %20 = load ptr, ptr %6, align 8, !tbaa !60
  %21 = call i32 @PKCS7_add_crl(ptr noundef %19, ptr noundef %20)
  %22 = icmp ne i32 %21, 0
  br i1 %22, label %25, label %23

23:                                               ; preds = %16
  %24 = load i64, ptr @ePKCS7Error, align 8, !tbaa !11
  call void (i64, ptr, ...) @ossl_raise(i64 noundef %24, ptr noundef null) #17
  unreachable

25:                                               ; preds = %16
  %26 = load i64, ptr %3, align 8, !tbaa !11
  call void @llvm.lifetime.end.p0(i64 8, ptr %6) #16
  call void @llvm.lifetime.end.p0(i64 8, ptr %5) #16
  ret i64 %26
}

; Function Attrs: nounwind sspstrong uwtable
define internal i64 @ossl_pkcs7_set_crls_i(i64 noundef %0, i64 noundef %1, i32 noundef %2, ptr noundef %3, i64 noundef %4) #0 {
  %6 = alloca i64, align 8
  %7 = alloca i64, align 8
  %8 = alloca i32, align 4
  %9 = alloca ptr, align 8
  %10 = alloca i64, align 8
  store i64 %0, ptr %6, align 8, !tbaa !11
  store i64 %1, ptr %7, align 8, !tbaa !11
  store i32 %2, ptr %8, align 4, !tbaa !20
  store ptr %3, ptr %9, align 8, !tbaa !22
  store i64 %4, ptr %10, align 8, !tbaa !11
  %11 = load i64, ptr %7, align 8, !tbaa !11
  %12 = load i64, ptr %6, align 8, !tbaa !11
  %13 = call i64 @ossl_pkcs7_add_crl(i64 noundef %11, i64 noundef %12)
  ret i64 %13
}